target datalayout = "e-m:e-p270:32:32-p271:32:32-p272:64:64-i64:64-i128:128-f80:128-n8:16:32:64-S128"
target triple = "x86_64-pc-linux-gnu"

@.str.7 = private unnamed_addr constant [3 x i8] c", \00", align 1
@.str.35 = private unnamed_addr constant [9 x i8] c"flags: [\00", align 1
@.str.36 = private unnamed_addr constant [8 x i8] c"aligned\00", align 1
@.str.37 = private unnamed_addr constant [12 x i8] c"%sunaligned\00", align 1
@.str.38 = private unnamed_addr constant [1 x i8] zeroinitializer, align 1
@.str.39 = private unnamed_addr constant [10 x i8] c"%sinplace\00", align 1
@.str.40 = private unnamed_addr constant [15 x i8] c"%sout_of_place\00", align 1
@.str.41 = private unnamed_addr constant [11 x i8] c"%sfwd_only\00", align 1
@.str.42 = private unnamed_addr constant [11 x i8] c"%sinv_only\00", align 1
@.str.43 = private unnamed_addr constant [10 x i8] c"%spreshuf\00", align 1
@.str.44 = private unnamed_addr constant [13 x i8] c"%simdct_full\00", align 1
@.str.45 = private unnamed_addr constant [15 x i8] c"%sreal_to_real\00", align 1
@.str.46 = private unnamed_addr constant [20 x i8] c"%sreal_to_imaginary\00", align 1
@.str.47 = private unnamed_addr constant [11 x i8] c"%sasm_call\00", align 1
@.str.48 = private unnamed_addr constant [2 x i8] c"]\00", align 1

; Function Attrs: nounwind uwtable
define internal void @print_flags(ptr noundef %0, i64 noundef %1) #0 {
  %3 = alloca ptr, align 8
  %4 = alloca i64, align 8
  %5 = alloca i32, align 4
  %6 = alloca ptr, align 8
  store ptr %0, ptr %3, align 8, !tbaa !120
  store i64 %1, ptr %4, align 8, !tbaa !93
  call void @llvm.lifetime.start.p0(i64 4, ptr %5) #11
  store i32 0, ptr %5, align 4, !tbaa !11
  call void @llvm.lifetime.start.p0(i64 8, ptr %6) #11
  store ptr @.str.7, ptr %6, align 8, !tbaa !122
  %7 = load ptr, ptr %3, align 8, !tbaa !120
  call void (ptr, ptr, ...) @av_bprintf(ptr noundef %7, ptr noundef @.str.35)
  %8 = load i64, ptr %4, align 8, !tbaa !93
  %9 = and i64 %8, 4611686018427387904
  %10 = icmp ne i64 %9, 0
  br i1 %10, label %11, label %17

11:                                               ; preds = %2
  %12 = load i32, ptr %5, align 4, !tbaa !11
  %13 = add nsw i32 %12, 1
  store i32 %13, ptr %5, align 4, !tbaa !11
  %14 = icmp ne i32 %13, 0
  br i1 %14, label %15, label %17

15:                                               ; preds = %11
  %16 = load ptr, ptr %3, align 8, !tbaa !120
  call void (ptr, ptr, ...) @av_bprintf(ptr noundef %16, ptr noundef @.str.36)
  br label %17

17:                                               ; preds = %15, %11, %2
  %18 = load i64, ptr %4, align 8, !tbaa !93
  %19 = and i64 %18, 2
  %20 = icmp ne i64 %19, 0
  br i1 %20, label %21, label %34

21:                                               ; preds = %17
  %22 = load i32, ptr %5, align 4, !tbaa !11
  %23 = add nsw i32 %22, 1
  store i32 %23, ptr %5, align 4, !tbaa !11
  %24 = icmp ne i32 %23, 0
  br i1 %24, label %25, label %34

25:                                               ; preds = %21
  %26 = load ptr, ptr %3, align 8, !tbaa !120
  %27 = load i32, ptr %5, align 4, !tbaa !11
  %28 = icmp sgt i32 %27, 1
  br i1 %28, label %29, label %31

29:                                               ; preds = %25
  %30 = load ptr, ptr %6, align 8, !tbaa !122
  br label %32

31:                                               ; preds = %25
  br label %32

32:                                               ; preds = %31, %29
  %33 = phi ptr [ %30, %29 ], [ @.str.38, %31 ]
  call void (ptr, ptr, ...) @av_bprintf(ptr noundef %26, ptr noundef @.str.37, ptr noundef %33)
  br label %34

34:                                               ; preds = %32, %21, %17
  %35 = load i64, ptr %4, align 8, !tbaa !93
  %36 = and i64 %35, 1
  %37 = icmp ne i64 %36, 0
  br i1 %37, label %38, label %51

38:                                               ; preds = %34
  %39 = load i32, ptr %5, align 4, !tbaa !11
  %40 = add nsw i32 %39, 1
  store i32 %40, ptr %5, align 4, !tbaa !11
  %41 = icmp ne i32 %40, 0
  br i1 %41, label %42, label %51

42:                                               ; preds = %38
  %43 = load ptr, ptr %3, align 8, !tbaa !120
  %44 = load i32, ptr %5, align 4, !tbaa !11
  %45 = icmp sgt i32 %44, 1
  br i1 %45, label %46, label %48

46:                                               ; preds = %42
  %47 = load ptr, ptr %6, align 8, !tbaa !122
  br label %49

48:                                               ; preds = %42
  br label %49

49:                                               ; preds = %48, %46
  %50 = phi ptr [ %47, %46 ], [ @.str.38, %48 ]
  call void (ptr, ptr, ...) @av_bprintf(ptr noundef %43, ptr noundef @.str.39, ptr noundef %50)
  br label %51

51:                                               ; preds = %49, %38, %34
  %52 = load i64, ptr %4, align 8, !tbaa !93
  %53 = and i64 %52, -9223372036854775808
  %54 = icmp ne i64 %53, 0
  br i1 %54, label %55, label %68

55:                                               ; preds = %51
  %56 = load i32, ptr %5, align 4, !tbaa !11
  %57 = add nsw i32 %56, 1
  store i32 %57, ptr %5, align 4, !tbaa !11
  %58 = icmp ne i32 %57, 0
  br i1 %58, label %59, label %68

59:                                               ; preds = %55
  %60 = load ptr, ptr %3, align 8, !tbaa !120
  %61 = load i32, ptr %5, align 4, !tbaa !11
  %62 = icmp sgt i32 %61, 1
  br i1 %62, label %63, label %65

63:                                               ; preds = %59
  %64 = load ptr, ptr %6, align 8, !tbaa !122
  br label %66

65:                                               ; preds = %59
  br label %66

66:                                               ; preds = %65, %63
  %67 = phi ptr [ %64, %63 ], [ @.str.38, %65 ]
  call void (ptr, ptr, ...) @av_bprintf(ptr noundef %60, ptr noundef @.str.40, ptr noundef %67)
  br label %68

68:                                               ; preds = %66, %55, %51
  %69 = load i64, ptr %4, align 8, !tbaa !93
  %70 = and i64 %69, 576460752303423488
  %71 = icmp ne i64 %70, 0
  br i1 %71, label %72, label %85

72:                                               ; preds = %68
  %73 = load i32, ptr %5, align 4, !tbaa !11
  %74 = add nsw i32 %73, 1
  store i32 %74, ptr %5, align 4, !tbaa !11
  %75 = icmp ne i32 %74, 0
  br i1 %75, label %76, label %85

76:                                               ; preds = %72
  %77 = load ptr, ptr %3, align 8, !tbaa !120
  %78 = load i32, ptr %5, align 4, !tbaa !11
  %79 = icmp sgt i32 %78, 1
  br i1 %79, label %80, label %82

80:                                               ; preds = %76
  %81 = load ptr, ptr %6, align 8, !tbaa !122
  br label %83

82:                                               ; preds = %76
  br label %83

83:                                               ; preds = %82, %80
  %84 = phi ptr [ %81, %80 ], [ @.str.38, %82 ]
  call void (ptr, ptr, ...) @av_bprintf(ptr noundef %77, ptr noundef @.str.41, ptr noundef %84)
  br label %85

85:                                               ; preds = %83, %72, %68
  %86 = load i64, ptr %4, align 8, !tbaa !93
  %87 = and i64 %86, 1152921504606846976
  %88 = icmp ne i64 %87, 0
  br i1 %88, label %89, label %102

89:                                               ; preds = %85
  %90 = load i32, ptr %5, align 4, !tbaa !11
  %91 = add nsw i32 %90, 1
  store i32 %91, ptr %5, align 4, !tbaa !11
  %92 = icmp ne i32 %91, 0
  br i1 %92, label %93, label %102

93:                                               ; preds = %89
  %94 = load ptr, ptr %3, align 8, !tbaa !120
  %95 = load i32, ptr %5, align 4, !tbaa !11
  %96 = icmp sgt i32 %95, 1
  br i1 %96, label %97, label %99

97:                                               ; preds = %93
  %98 = load ptr, ptr %6, align 8, !tbaa !122
  br label %100

99:                                               ; preds = %93
  br label %100

100:                                              ; preds = %99, %97
  %101 = phi ptr [ %98, %97 ], [ @.str.38, %99 ]
  call void (ptr, ptr, ...) @av_bprintf(ptr noundef %94, ptr noundef @.str.42, ptr noundef %101)
  br label %102

102:                                              ; preds = %100, %89, %85
  %103 = load i64, ptr %4, align 8, !tbaa !93
  %104 = and i64 %103, 2305843009213693952
  %105 = icmp ne i64 %104, 0
  br i1 %105, label %106, label %119

106:                                              ; preds = %102
  %107 = load i32, ptr %5, align 4, !tbaa !11
  %108 = add nsw i32 %107, 1
  store i32 %108, ptr %5, align 4, !tbaa !11
  %109 = icmp ne i32 %108, 0
  br i1 %109, label %110, label %119

110:                                              ; preds = %106
  %111 = load ptr, ptr %3, align 8, !tbaa !120
  %112 = load i32, ptr %5, align 4, !tbaa !11
  %113 = icmp sgt i32 %112, 1
  br i1 %113, label %114, label %116

114:                                              ; preds = %110
  %115 = load ptr, ptr %6, align 8, !tbaa !122
  br label %117

116:                                              ; preds = %110
  br label %117

117:                                              ; preds = %116, %114
  %118 = phi ptr [ %115, %114 ], [ @.str.38, %116 ]
  call void (ptr, ptr, ...) @av_bprintf(ptr noundef %111, ptr noundef @.str.43, ptr noundef %118)
  br label %119

119:                                              ; preds = %117, %106, %102
  %120 = load i64, ptr %4, align 8, !tbaa !93
  %121 = and i64 %120, 4
  %122 = icmp ne i64 %121, 0
  br i1 %122, label %123, label %136

123:                                              ; preds = %119
  %124 = load i32, ptr %5, align 4, !tbaa !11
  %125 = add nsw i32 %124, 1
  store i32 %125, ptr %5, align 4, !tbaa !11
  %126 = icmp ne i32 %125, 0
  br i1 %126, label %127, label %136

127:                                              ; preds = %123
  %128 = load ptr, ptr %3, align 8, !tbaa !120
  %129 = load i32, ptr %5, align 4, !tbaa !11
  %130 = icmp sgt i32 %129, 1
  br i1 %130, label %131, label %133

131:                                              ; preds = %127
  %132 = load ptr, ptr %6, align 8, !tbaa !122
  br label %134

133:                                              ; preds = %127
  br label %134

134:                                              ; preds = %133, %131
  %135 = phi ptr [ %132, %131 ], [ @.str.38, %133 ]
  call void (ptr, ptr, ...) @av_bprintf(ptr noundef %128, ptr noundef @.str.44, ptr noundef %135)
  br label %136

136:                                              ; preds = %134, %123, %119
  %137 = load i64, ptr %4, align 8, !tbaa !93
  %138 = and i64 %137, 8
  %139 = icmp ne i64 %138, 0
  br i1 %139, label %140, label %153

140:                                              ; preds = %136
  %141 = load i32, ptr %5, align 4, !tbaa !11
  %142 = add nsw i32 %141, 1
  store i32 %142, ptr %5, align 4, !tbaa !11
  %143 = icmp ne i32 %142, 0
  br i1 %143, label %144, label %153

144:                                              ; preds = %140
  %145 = load ptr, ptr %3, align 8, !tbaa !120
  %146 = load i32, ptr %5, align 4, !tbaa !11
  %147 = icmp sgt i32 %146, 1
  br i1 %147, label %148, label %150

148:                                              ; preds = %144
  %149 = load ptr, ptr %6, align 8, !tbaa !122
  br label %151

150:                                              ; preds = %144
  br label %151

151:                                              ; preds = %150, %148
  %152 = phi ptr [ %149, %148 ], [ @.str.38, %150 ]
  call void (ptr, ptr, ...) @av_bprintf(ptr noundef %145, ptr noundef @.str.45, ptr noundef %152)
  br label %153

153:                                              ; preds = %151, %140, %136
  %154 = load i64, ptr %4, align 8, !tbaa !93
  %155 = and i64 %154, 16
  %156 = icmp ne i64 %155, 0
  br i1 %156, label %157, label %170

157:                                              ; preds = %153
  %158 = load i32, ptr %5, align 4, !tbaa !11
  %159 = add nsw i32 %158, 1
  store i32 %159, ptr %5, align 4, !tbaa !11
  %160 = icmp ne i32 %159, 0
  br i1 %160, label %161, label %170

161:                                              ; preds = %157
  %162 = load ptr, ptr %3, align 8, !tbaa !120
  %163 = load i32, ptr %5, align 4, !tbaa !11
  %164 = icmp sgt i32 %163, 1
  br i1 %164, label %165, label %167

165:                                              ; preds = %161
  %166 = load ptr, ptr %6, align 8, !tbaa !122
  br label %168

167:                                              ; preds = %161
  br label %168

168:                                              ; preds = %167, %165
  %169 = phi ptr [ %166, %165 ], [ @.str.38, %167 ]
  call void (ptr, ptr, ...) @av_bprintf(ptr noundef %162, ptr noundef @.str.46, ptr noundef %169)
  br label %170

170:                                              ; preds = %168, %157, %153
  %171 = load i64, ptr %4, align 8, !tbaa !93
  %172 = and i64 %171, 288230376151711744
  %173 = icmp ne i64 %172, 0
  br i1 %173, label %174, label %187

174:                                              ; preds = %170
  %175 = load i32, ptr %5, align 4, !tbaa !11
  %176 = add nsw i32 %175, 1
  store i32 %176, ptr %5, align 4, !tbaa !11
  %177 = icmp ne i32 %176, 0
  br i1 %177, label %178, label %187

178:                                              ; preds = %174
  %179 = load ptr, ptr %3, align 8, !tbaa !120
  %180 = load i32, ptr %5, align 4, !tbaa !11
  %181 = icmp sgt i32 %180, 1
  br i1 %181, label %182, label %184

182:                                              ; preds = %178
  %183 = load ptr, ptr %6, align 8, !tbaa !122
  br label %185

184:                                              ; preds = %178
  br label %185

185:                                              ; preds = %184, %182
  %186 = phi ptr [ %183, %182 ], [ @.str.38, %184 ]
  call void (ptr, ptr, ...) @av_bprintf(ptr noundef %179, ptr noundef @.str.47, ptr noundef %186)
  br label %187

187:                                              ; preds = %185, %174, %170
  %188 = load ptr, ptr %3, align 8, !tbaa !120
  call void (ptr, ptr, ...) @av_bprintf(ptr noundef %188, ptr noundef @.str.48)
  call void @llvm.lifetime.end.p0(i64 8, ptr %6) #11
  call void @llvm.lifetime.end.p0(i64 4, ptr %5) #11
  ret void
}